; ModuleID = '25/873.cpp'
source_filename = "25/873.cpp"
target datalayout = "e-m:e-p270:32:32-p271:32:32-p272:64:64-i64:64-f80:128-n8:16:32:64-S128"
target triple = "x86_64-pc-linux-gnu"

%"class.std::ios_base::Init" = type { i8 }
%"class.std::basic_istream" = type { i32 (...)**, i64, %"class.std::basic_ios" }
%"class.std::basic_ios" = type { %"class.std::ios_base", %"class.std::basic_ostream"*, i8, i8, %"class.std::basic_streambuf"*, %"class.std::ctype"*, %"class.std::num_put"*, %"class.std::num_get"* }
%"class.std::ios_base" = type { i32 (...)**, i64, i64, i32, i32, i32, %"struct.std::ios_base::_Callback_list"*, %"struct.std::ios_base::_Words", [8 x %"struct.std::ios_base::_Words"], i32, %"struct.std::ios_base::_Words"*, %"class.std::locale" }
%"struct.std::ios_base::_Callback_list" = type { %"struct.std::ios_base::_Callback_list"*, void (i32, %"class.std::ios_base"*, i32)*, i32, i32 }
%"struct.std::ios_base::_Words" = type { i8*, i64 }
%"class.std::locale" = type { %"class.std::locale::_Impl"* }
%"class.std::locale::_Impl" = type { i32, %"class.std::locale::facet"**, i64, %"class.std::locale::facet"**, i8** }
%"class.std::locale::facet" = type <{ i32 (...)**, i32, [4 x i8] }>
%"class.std::basic_ostream" = type { i32 (...)**, %"class.std::basic_ios" }
%"class.std::basic_streambuf" = type { i32 (...)**, i8*, i8*, i8*, i8*, i8*, i8*, %"class.std::locale" }
%"class.std::ctype" = type <{ %"class.std::locale::facet.base", [4 x i8], %struct.__locale_struct*, i8, [7 x i8], i32*, i32*, i16*, i8, [256 x i8], [256 x i8], i8, [6 x i8] }>
%"class.std::locale::facet.base" = type <{ i32 (...)**, i32 }>
%struct.__locale_struct = type { [13 x %struct.__locale_data*], i16*, i32*, i32*, [13 x i8*] }
%struct.__locale_data = type opaque
%"class.std::num_put" = type { %"class.std::locale::facet.base", [4 x i8] }
%"class.std::num_get" = type { %"class.std::locale::facet.base", [4 x i8] }

@_ZStL8__ioinit = internal global %"class.std::ios_base::Init" zeroinitializer, align 1
@__dso_handle = external hidden global i8
@_ZSt3cin = external dso_local global %"class.std::basic_istream", align 8
@_ZSt4cout = external dso_local global %"class.std::basic_ostream", align 8
@llvm.global_ctors = appending global [1 x { i32, void ()*, i8* }] [{ i32, void ()*, i8* } { i32 65535, void ()* @_GLOBAL__sub_I_873.cpp, i8* null }]

; Function Attrs: noinline uwtable
define internal void @__cxx_global_var_init() #0 section ".text.startup" {
  call void @_ZNSt8ios_base4InitC1Ev(%"class.std::ios_base::Init"* @_ZStL8__ioinit)
  %1 = call i32 @__cxa_atexit(void (i8*)* bitcast (void (%"class.std::ios_base::Init"*)* @_ZNSt8ios_base4InitD1Ev to void (i8*)*), i8* getelementptr inbounds (%"class.std::ios_base::Init", %"class.std::ios_base::Init"* @_ZStL8__ioinit, i32 0, i32 0), i8* @__dso_handle) #3
  ret void
}

declare dso_local void @_ZNSt8ios_base4InitC1Ev(%"class.std::ios_base::Init"*) unnamed_addr #1

; Function Attrs: nounwind
declare dso_local void @_ZNSt8ios_base4InitD1Ev(%"class.std::ios_base::Init"*) unnamed_addr #2

; Function Attrs: nounwind
declare dso_local i32 @__cxa_atexit(void (i8*)*, i8*, i8*) #3

; Function Attrs: noinline nounwind uwtable
define dso_local i32 @_Z1fPi(i32* %0) #4 {
  %2 = alloca i32*, align 8
  %3 = alloca i32, align 4
  %4 = alloca [40 x i32], align 16
  store i32* %0, i32** %2, align 8
  %5 = bitcast [40 x i32]* %4 to i8*
  call void @llvm.memset.p0i8.i64(i8* align 16 %5, i8 0, i64 160, i1 false)
  store i32 1, i32* %3, align 4
  br label %6

6:                                                ; preds = %42, %1
  %7 = load i32, i32* %3, align 4
  %8 = icmp sle i32 %7, 39
  br i1 %8, label %9, label %45

9:                                                ; preds = %6
  %10 = load i32*, i32** %2, align 8
  %11 = load i32, i32* %3, align 4
  %12 = sext i32 %11 to i64
  %13 = getelementptr inbounds i32, i32* %10, i64 %12
  %14 = load i32, i32* %13, align 4
  %15 = mul nsw i32 2, %14
  %16 = load i32, i32* %3, align 4
  %17 = sext i32 %16 to i64
  %18 = getelementptr inbounds [40 x i32], [40 x i32]* %4, i64 0, i64 %17
  store i32 %15, i32* %18, align 4
  %19 = load i32, i32* %3, align 4
  %20 = sext i32 %19 to i64
  %21 = getelementptr inbounds [40 x i32], [40 x i32]* %4, i64 0, i64 %20
  %22 = load i32, i32* %21, align 4
  %23 = srem i32 %22, 10
  %24 = load i32, i32* %3, align 4
  %25 = sub nsw i32 %24, 1
  %26 = sext i32 %25 to i64
  %27 = getelementptr inbounds [40 x i32], [40 x i32]* %4, i64 0, i64 %26
  %28 = load i32, i32* %27, align 4
  %29 = add nsw i32 %23, %28
  %30 = load i32*, i32** %2, align 8
  %31 = load i32, i32* %3, align 4
  %32 = sext i32 %31 to i64
  %33 = getelementptr inbounds i32, i32* %30, i64 %32
  store i32 %29, i32* %33, align 4
  %34 = load i32, i32* %3, align 4
  %35 = sext i32 %34 to i64
  %36 = getelementptr inbounds [40 x i32], [40 x i32]* %4, i64 0, i64 %35
  %37 = load i32, i32* %36, align 4
  %38 = sdiv i32 %37, 10
  %39 = load i32, i32* %3, align 4
  %40 = sext i32 %39 to i64
  %41 = getelementptr inbounds [40 x i32], [40 x i32]* %4, i64 0, i64 %40
  store i32 %38, i32* %41, align 4
  br label %42

42:                                               ; preds = %9
  %43 = load i32, i32* %3, align 4
  %44 = add nsw i32 %43, 1
  store i32 %44, i32* %3, align 4
  br label %6

45:                                               ; preds = %6
  ret i32 0
}

; Function Attrs: argmemonly nounwind willreturn
declare void @llvm.memset.p0i8.i64(i8* nocapture writeonly, i8, i64, i1 immarg) #5

; Function Attrs: noinline norecurse uwtable
define dso_local i32 @main() #6 {
  %1 = alloca i32, align 4
  %2 = alloca [40 x i32], align 16
  %3 = alloca i32, align 4
  %4 = alloca i32, align 4
  %5 = alloca i32, align 4
  store i32 0, i32* %1, align 4
  %6 = bitcast [40 x i32]* %2 to i8*
  call void @llvm.memset.p0i8.i64(i8* align 16 %6, i8 0, i64 160, i1 false)
  %7 = getelementptr inbounds [40 x i32], [40 x i32]* %2, i64 0, i64 1
  store i32 1, i32* %7, align 4
  %8 = call dereferenceable(280) %"class.std::basic_istream"* @_ZNSirsERi(%"class.std::basic_istream"* @_ZSt3cin, i32* dereferenceable(4) %3)
  store i32 1, i32* %4, align 4
  br label %9

9:                                                ; preds = %16, %0
  %10 = load i32, i32* %4, align 4
  %11 = load i32, i32* %3, align 4
  %12 = icmp sle i32 %10, %11
  br i1 %12, label %13, label %19

13:                                               ; preds = %9
  %14 = getelementptr inbounds [40 x i32], [40 x i32]* %2, i64 0, i64 0
  %15 = call i32 @_Z1fPi(i32* %14)
  br label %16

16:                                               ; preds = %13
  %17 = load i32, i32* %4, align 4
  %18 = add nsw i32 %17, 1
  store i32 %18, i32* %4, align 4
  br label %9

19:                                               ; preds = %9
  store i32 0, i32* %5, align 4
  store i32 39, i32* %4, align 4
  br label %20

20:                                               ; preds = %45, %19
  %21 = load i32, i32* %4, align 4
  %22 = icmp sge i32 %21, 1
  br i1 %22, label %23, label %48

23:                                               ; preds = %20
  %24 = load i32, i32* %5, align 4
  %25 = icmp eq i32 %24, 1
  br i1 %25, label %26, label %32

26:                                               ; preds = %23
  %27 = load i32, i32* %4, align 4
  %28 = sext i32 %27 to i64
  %29 = getelementptr inbounds [40 x i32], [40 x i32]* %2, i64 0, i64 %28
  %30 = load i32, i32* %29, align 4
  %31 = call dereferenceable(272) %"class.std::basic_ostream"* @_ZNSolsEi(%"class.std::basic_ostream"* @_ZSt4cout, i32 %30)
  br label %45

32:                                               ; preds = %23
  %33 = load i32, i32* %4, align 4
  %34 = sext i32 %33 to i64
  %35 = getelementptr inbounds [40 x i32], [40 x i32]* %2, i64 0, i64 %34
  %36 = load i32, i32* %35, align 4
  %37 = icmp ne i32 %36, 0
  br i1 %37, label %38, label %44

38:                                               ; preds = %32
  store i32 1, i32* %5, align 4
  %39 = load i32, i32* %4, align 4
  %40 = sext i32 %39 to i64
  %41 = getelementptr inbounds [40 x i32], [40 x i32]* %2, i64 0, i64 %40
  %42 = load i32, i32* %41, align 4
  %43 = call dereferenceable(272) %"class.std::basic_ostream"* @_ZNSolsEi(%"class.std::basic_ostream"* @_ZSt4cout, i32 %42)
  br label %44

44:                                               ; preds = %38, %32
  br label %45

45:                                               ; preds = %44, %26
  %46 = load i32, i32* %4, align 4
  %47 = add nsw i32 %46, -1
  store i32 %47, i32* %4, align 4
  br label %20

48:                                               ; preds = %20
  ret i32 0
}

declare dso_local dereferenceable(280) %"class.std::basic_istream"* @_ZNSirsERi(%"class.std::basic_istream"*, i32* dereferenceable(4)) #1

declare dso_local dereferenceable(272) %"class.std::basic_ostream"* @_ZNSolsEi(%"class.std::basic_ostream"*, i32) #1

; Function Attrs: noinline uwtable
define internal void @_GLOBAL__sub_I_873.cpp() #0 section ".text.startup" {
  call void @__cxx_global_var_init()
  ret void
}


!llvm.module.flags = !{!0}
!llvm.ident = !{!1}

!0 = !{i32 1, !"wchar_size", i32 4}
!1 = !{!"clang version 10.0.0-4ubuntu1 "}
