; ModuleID = 'source-C-CXX/24/873.cpp'
source_filename = "source-C-CXX/24/873.cpp"
target datalayout = "e-m:e-p270:32:32-p271:32:32-p272:64:64-i64:64-f80:128-n8:16:32:64-S128"
target triple = "x86_64-pc-linux-gnu"

%"class.std::ios_base::Init" = type { i8 }
%"class.std::basic_istream" = type { i32 (...)**, i64, %"class.std::basic_ios" }
%"class.std::basic_ios" = type { %"class.std::ios_base", %"class.std::basic_ostream"*, i8, i8, %"class.std::basic_streambuf"*, %"class.std::ctype"*, %"class.std::num_put"*, %"class.std::num_get"* }
%"class.std::ios_base" = type { i32 (...)**, i64, i64, i32, i32, i32, %"struct.std::ios_base::_Callback_list"*, %"struct.std::ios_base::_Words", [8 x %"struct.std::ios_base::_Words"], i32, %"struct.std::ios_base::_Words"*, %"class.std::locale" }
%"struct.std::ios_base::_Callback_list" = type { %"struct.std::ios_base::_Callback_list"*, void (i32, %"class.std::ios_base"*, i32)*, i32, i32 }
%"struct.std::ios_base::_Words" = type { i8*, i64 }
%"class.std::locale" = type { %"class.std::locale::_Impl"* }
%"class.std::locale::_Impl" = type { i32, %"class.std::locale::facet"**, i64, %"class.std::locale::facet"**, i8** }
%"class.std::locale::facet" = type <{ i32 (...)**, i32, [4 x i8] }>
%"class.std::basic_ostream" = type { i32 (...)**, %"class.std::basic_ios" }
%"class.std::basic_streambuf" = type { i32 (...)**, i8*, i8*, i8*, i8*, i8*, i8*, %"class.std::locale" }
%"class.std::ctype" = type <{ %"class.std::locale::facet.base", [4 x i8], %struct.__locale_struct*, i8, [7 x i8], i32*, i32*, i16*, i8, [256 x i8], [256 x i8], i8, [6 x i8] }>
%"class.std::locale::facet.base" = type <{ i32 (...)**, i32 }>
%struct.__locale_struct = type { [13 x %struct.__locale_data*], i16*, i32*, i32*, [13 x i8*] }
%struct.__locale_data = type opaque
%"class.std::num_put" = type { %"class.std::locale::facet.base", [4 x i8] }
%"class.std::num_get" = type { %"class.std::locale::facet.base", [4 x i8] }

@_ZStL8__ioinit = internal global %"class.std::ios_base::Init" zeroinitializer, align 1
@__dso_handle = external hidden global i8
@_ZSt3cin = external global %"class.std::basic_istream", align 8
@_ZSt4cout = external global %"class.std::basic_ostream", align 8
@llvm.global_ctors = appending global [1 x { i32, void ()*, i8* }] [{ i32, void ()*, i8* } { i32 65535, void ()* @_GLOBAL__sub_I_873.cpp, i8* null }]

declare void @_ZNSt8ios_base4InitC1Ev(%"class.std::ios_base::Init"* nonnull align 1 dereferenceable(1)) unnamed_addr #0

; Function Attrs: nounwind
declare void @_ZNSt8ios_base4InitD1Ev(%"class.std::ios_base::Init"* nonnull align 1 dereferenceable(1)) unnamed_addr #1

; Function Attrs: nofree nounwind
declare i32 @__cxa_atexit(void (i8*)*, i8*, i8*) local_unnamed_addr #2

; Function Attrs: mustprogress nofree nosync nounwind sspstrong uwtable
define dso_local i32 @_Z1fPi(i32* nocapture %0) local_unnamed_addr #3 {
  br label %2

2:                                                ; preds = %1, %2
  %3 = phi i32 [ 0, %1 ], [ %10, %2 ]
  %4 = phi i64 [ 1, %1 ], [ %11, %2 ]
  %5 = getelementptr inbounds i32, i32* %0, i64 %4
  %6 = load i32, i32* %5, align 4, !tbaa !5
  %7 = shl nsw i32 %6, 1
  %8 = srem i32 %7, 10
  %9 = add nsw i32 %8, %3
  store i32 %9, i32* %5, align 4, !tbaa !5
  %10 = sdiv i32 %6, 5
  %11 = add nuw nsw i64 %4, 1
  %12 = icmp eq i64 %11, 40
  br i1 %12, label %13, label %2, !llvm.loop !9

13:                                               ; preds = %2
  ret i32 0
}

; Function Attrs: argmemonly mustprogress nofree nosync nounwind willreturn
declare void @llvm.lifetime.start.p0i8(i64 immarg, i8* nocapture) #4

; Function Attrs: argmemonly mustprogress nofree nounwind willreturn writeonly
declare void @llvm.memset.p0i8.i64(i8* nocapture writeonly, i8, i64, i1 immarg) #5

; Function Attrs: argmemonly mustprogress nofree nosync nounwind willreturn
declare void @llvm.lifetime.end.p0i8(i64 immarg, i8* nocapture) #4

; Function Attrs: mustprogress norecurse sspstrong uwtable
define dso_local i32 @main() local_unnamed_addr #6 {
  %1 = alloca [40 x i32], align 16
  %2 = alloca i32, align 4
  %3 = bitcast [40 x i32]* %1 to i8*
  call void @llvm.lifetime.start.p0i8(i64 160, i8* nonnull %3) #8
  call void @llvm.memset.p0i8.i64(i8* noundef nonnull align 16 dereferenceable(160) %3, i8 0, i64 160, i1 false)
  %4 = getelementptr inbounds [40 x i32], [40 x i32]* %1, i64 0, i64 1
  store i32 1, i32* %4, align 4, !tbaa !5
  %5 = bitcast i32* %2 to i8*
  call void @llvm.lifetime.start.p0i8(i64 4, i8* nonnull %5) #8
  %6 = call nonnull align 8 dereferenceable(16) %"class.std::basic_istream"* @_ZNSirsERi(%"class.std::basic_istream"* nonnull align 8 dereferenceable(16) @_ZSt3cin, i32* nonnull align 4 dereferenceable(4) %2)
  %7 = load i32, i32* %2, align 4, !tbaa !5
  %8 = icmp slt i32 %7, 1
  br i1 %8, label %25, label %9

9:                                                ; preds = %0, %22
  %10 = phi i32 [ %23, %22 ], [ 1, %0 ]
  br label %11

11:                                               ; preds = %9, %11
  %12 = phi i32 [ %19, %11 ], [ 0, %9 ]
  %13 = phi i64 [ %20, %11 ], [ 1, %9 ]
  %14 = getelementptr inbounds [40 x i32], [40 x i32]* %1, i64 0, i64 %13
  %15 = load i32, i32* %14, align 4, !tbaa !5
  %16 = shl nsw i32 %15, 1
  %17 = srem i32 %16, 10
  %18 = add nsw i32 %17, %12
  store i32 %18, i32* %14, align 4, !tbaa !5
  %19 = sdiv i32 %15, 5
  %20 = add nuw nsw i64 %13, 1
  %21 = icmp eq i64 %20, 40
  br i1 %21, label %22, label %11, !llvm.loop !9

22:                                               ; preds = %11
  %23 = add nuw i32 %10, 1
  %24 = icmp eq i32 %10, %7
  br i1 %24, label %25, label %9, !llvm.loop !11

25:                                               ; preds = %22, %0
  br label %26

26:                                               ; preds = %25, %36
  %27 = phi i64 [ %38, %36 ], [ 39, %25 ]
  %28 = phi i32 [ %37, %36 ], [ 0, %25 ]
  %29 = icmp ne i32 %28, 1
  %30 = getelementptr inbounds [40 x i32], [40 x i32]* %1, i64 0, i64 %27
  %31 = load i32, i32* %30, align 4, !tbaa !5
  %32 = icmp eq i32 %31, 0
  %33 = select i1 %29, i1 %32, i1 false
  br i1 %33, label %36, label %34

34:                                               ; preds = %26
  %35 = call nonnull align 8 dereferenceable(8) %"class.std::basic_ostream"* @_ZNSolsEi(%"class.std::basic_ostream"* nonnull align 8 dereferenceable(8) @_ZSt4cout, i32 %31)
  br label %36

36:                                               ; preds = %26, %34
  %37 = phi i32 [ 1, %34 ], [ 0, %26 ]
  %38 = add nsw i64 %27, -1
  %39 = icmp ugt i64 %27, 1
  br i1 %39, label %26, label %40, !llvm.loop !12

40:                                               ; preds = %36
  call void @llvm.lifetime.end.p0i8(i64 4, i8* nonnull %5) #8
  call void @llvm.lifetime.end.p0i8(i64 160, i8* nonnull %3) #8
  ret i32 0
}

declare nonnull align 8 dereferenceable(16) %"class.std::basic_istream"* @_ZNSirsERi(%"class.std::basic_istream"* nonnull align 8 dereferenceable(16), i32* nonnull align 4 dereferenceable(4)) local_unnamed_addr #0

declare nonnull align 8 dereferenceable(8) %"class.std::basic_ostream"* @_ZNSolsEi(%"class.std::basic_ostream"* nonnull align 8 dereferenceable(8), i32) local_unnamed_addr #0

; Function Attrs: sspstrong uwtable
define internal void @_GLOBAL__sub_I_873.cpp() #7 section ".text.startup" {
  tail call void @_ZNSt8ios_base4InitC1Ev(%"class.std::ios_base::Init"* nonnull align 1 dereferenceable(1) @_ZStL8__ioinit)
  %1 = tail call i32 @__cxa_atexit(void (i8*)* bitcast (void (%"class.std::ios_base::Init"*)* @_ZNSt8ios_base4InitD1Ev to void (i8*)*), i8* getelementptr inbounds (%"class.std::ios_base::Init", %"class.std::ios_base::Init"* @_ZStL8__ioinit, i64 0, i32 0), i8* nonnull @__dso_handle) #8
  ret void
}


!llvm.module.flags = !{!0, !1, !2, !3}
!llvm.ident = !{!4}

!0 = !{i32 1, !"wchar_size", i32 4}
!1 = !{i32 7, !"PIC Level", i32 2}
!2 = !{i32 7, !"PIE Level", i32 2}
!3 = !{i32 7, !"uwtable", i32 1}
!4 = !{!"clang version 13.0.0"}
!5 = !{!6, !6, i64 0}
!6 = !{!"int", !7, i64 0}
!7 = !{!"omnipotent char", !8, i64 0}
!8 = !{!"Simple C++ TBAA"}
!9 = distinct !{!9, !10}
!10 = !{!"llvm.loop.mustprogress"}
!11 = distinct !{!11, !10}
!12 = distinct !{!12, !10}
